; Function Attrs: null_pointer_is_valid sspstrong uwtable
define internal fastcc range(i32 23, 279) i32 @dissect_rdm_pd_search_domain(ptr noundef %0, ptr noundef %1, i8 noundef zeroext %2, i8 noundef zeroext %3) unnamed_addr #1 {
  switch i8 %2, label %10 [
    i8 33, label %5
    i8 48, label %5
  ]

5:                                                ; preds = %4, %4
  %6 = load i32, ptr @hf_rdm_pd_search_domain_dns_domain_name, align 4
  %7 = zext i8 %3 to i32
  %8 = tail call ptr @proto_tree_add_item(ptr noundef %1, i32 noundef %6, ptr noundef %0, i32 noundef 23, i32 noundef range(i32 -20, 256) %7, i32 noundef 0)
  %9 = add nuw nsw i32 %7, 23
  br label %10

10:                                               ; preds = %5, %4
  %.0 = phi i32 [ 23, %4 ], [ %9, %5 ]
  ret i32 %.0
}